; Function Attrs: inlinehint nofree norecurse nosync nounwind memory(argmem: readwrite) uwtable
define internal void @yuv422ptouyvy_c(ptr noundef readonly captures(none) %0, ptr noundef readonly captures(none) %1, ptr noundef readonly captures(none) %2, ptr noundef writeonly captures(none) %3, i32 noundef %4, i32 noundef %5, i32 noundef %6, i32 noundef %7, i32 noundef %8) #3 {
  %10 = ashr i32 %4, 1
  %11 = icmp sgt i32 %5, 0
  br i1 %11, label %.preheader.lr.ph.i, label %yuvPlanartouyvy_c.exit

.preheader.lr.ph.i:                               ; preds = %9
  %12 = icmp sgt i32 %10, 0
  %13 = sext i32 %6 to i64
  %14 = sext i32 %8 to i64
  br i1 %12, label %.preheader.us.i.preheader, label %yuvPlanartouyvy_c.exit

.preheader.us.i.preheader:                        ; preds = %.preheader.lr.ph.i
  %.137.idx.us.i = sext i32 %7 to i64
  br label %.preheader.us.i

.preheader.us.i:                                  ; preds = %.preheader.us.i.preheader, %._crit_edge.us.i
  %.03248.us.i = phi ptr [ %36, %._crit_edge.us.i ], [ %0, %.preheader.us.i.preheader ]
  %.03447.us.i = phi i32 [ %38, %._crit_edge.us.i ], [ 0, %.preheader.us.i.preheader ]
  %.03546.us.i = phi ptr [ %.1.us.i, %._crit_edge.us.i ], [ %1, %.preheader.us.i.preheader ]
  %.03645.us.i = phi ptr [ %.137.us.i, %._crit_edge.us.i ], [ %2, %.preheader.us.i.preheader ]
  %.03844.us.i = phi ptr [ %37, %._crit_edge.us.i ], [ %3, %.preheader.us.i.preheader ]
  br label %15

15:                                               ; preds = %15, %.preheader.us.i
  %.043.us.i = phi ptr [ %.03645.us.i, %.preheader.us.i ], [ %34, %15 ]
  %.02942.us.i = phi ptr [ %.03546.us.i, %.preheader.us.i ], [ %33, %15 ]
  %.03041.us.i = phi ptr [ %.03248.us.i, %.preheader.us.i ], [ %32, %15 ]
  %.03140.us.i = phi ptr [ %.03844.us.i, %.preheader.us.i ], [ %31, %15 ]
  %.03339.us.i = phi i32 [ 0, %.preheader.us.i ], [ %35, %15 ]
  %16 = load i8, ptr %.02942.us.i, align 1, !tbaa !8
  %17 = zext i8 %16 to i32
  %18 = load i8, ptr %.03041.us.i, align 1, !tbaa !8
  %19 = zext i8 %18 to i32
  %20 = shl nuw nsw i32 %19, 8
  %21 = or disjoint i32 %20, %17
  %22 = load i8, ptr %.043.us.i, align 1, !tbaa !8
  %23 = zext i8 %22 to i32
  %24 = shl nuw nsw i32 %23, 16
  %25 = or disjoint i32 %21, %24
  %26 = getelementptr inbounds nuw i8, ptr %.03041.us.i, i64 1
  %27 = load i8, ptr %26, align 1, !tbaa !8
  %28 = zext i8 %27 to i32
  %29 = shl nuw i32 %28, 24
  %30 = or disjoint i32 %25, %29
  %31 = getelementptr inbounds nuw i8, ptr %.03140.us.i, i64 4
  store i32 %30, ptr %.03140.us.i, align 4, !tbaa !4
  %32 = getelementptr inbounds nuw i8, ptr %.03041.us.i, i64 2
  %33 = getelementptr inbounds nuw i8, ptr %.02942.us.i, i64 1
  %34 = getelementptr inbounds nuw i8, ptr %.043.us.i, i64 1
  %35 = add nuw nsw i32 %.03339.us.i, 1
  %exitcond.not.i = icmp eq i32 %35, %10
  br i1 %exitcond.not.i, label %._crit_edge.us.i, label %15, !llvm.loop !74

._crit_edge.us.i:                                 ; preds = %15
  %.137.us.i = getelementptr inbounds i8, ptr %.03645.us.i, i64 %.137.idx.us.i
  %.1.us.i = getelementptr inbounds i8, ptr %.03546.us.i, i64 %.137.idx.us.i
  %36 = getelementptr inbounds i8, ptr %.03248.us.i, i64 %13
  %37 = getelementptr inbounds i8, ptr %.03844.us.i, i64 %14
  %38 = add nuw nsw i32 %.03447.us.i, 1
  %exitcond51.not.i = icmp eq i32 %38, %5
  br i1 %exitcond51.not.i, label %yuvPlanartouyvy_c.exit, label %.preheader.us.i, !llvm.loop !75

yuvPlanartouyvy_c.exit:                           ; preds = %._crit_edge.us.i, %9, %.preheader.lr.ph.i
  ret void
}